(dp1
S'Mallows-0.8, 2 Refs'
p2
(dp3
(I101
I30
tp4
I3712
s(I501
I20
tp5
I3026
s(I55
I5
tp6
I196
s(I101
I5
tp7
I252
s(I25
I5
tp8
I121
s(I501
I5
tp9
I294
s(I1001
I7
tp10
I730
s(I5
I30
tp11
I10
s(I1001
I10
tp12
I1403
s(I25
I30
tp13
I3276
s(I5
I5
tp14
I0
s(I1001
I20
tp15
I3032
s(I501
I30
tp16
I3779
s(I5001
I30
tp17
I3799
s(I55
I7
tp18
I574
s(I9
I7
tp19
I41
s(I55
I30
tp20
I3666
s(I101
I10
tp21
I1260
s(I9
I20
tp22
I844
s(I101
I7
tp23
I632
s(I1001
I30
tp24
I3745
s(I25
I7
tp25
I401
s(I9
I10
tp26
I167
s(I101
I20
tp27
I2844
s(I501
I10
tp28
I1379
s(I5001
I5
tp29
I286
s(I1001
I5
tp30
I293
s(I501
I7
tp31
I749
s(I25
I10
tp32
I932
s(I5001
I10
tp33
I1500
s(I5
I10
tp34
I0
s(I55
I10
tp35
I1161
s(I5001
I20
tp36
I3069
s(I5
I7
tp37
I0
s(I55
I20
tp38
I2776
s(I5
I20
tp39
I7
s(I9
I30
tp40
I1476
s(I25
I20
tp41
I2482
s(I9
I5
tp42
I7
s(I5001
I7
tp43
I776
ssS'Mallows-0.8'
p44
(dp45
g4
I1
sg5
I0
sg6
I8
sg7
I0
sg8
I26
sg9
I0
sg10
I0
sg11
I0
sg12
I0
sg13
I53
sg14
I0
sg15
I0
sg16
I0
sg17
I0
sg18
I20
sg19
I14
sg20
I9
sg21
I1
sg22
I28
sg23
I0
sg24
I0
sg25
I48
sg26
I27
sg27
I4
sg28
I0
sg29
I0
sg30
I0
sg31
I0
sg32
I58
sg33
I0
sg34
I0
sg35
I12
sg36
I0
sg37
I0
sg38
I15
sg39
I0
sg40
I26
sg41
I42
sg42
I8
sg43
I0
ssS'Impartial Culture'
p46
(dp47
g4
I4242
sg5
I3188
sg6
I208
sg7
I238
sg8
I119
sg9
I275
sg10
I750
sg11
I33
sg12
I1490
sg13
I3770
sg14
I0
sg15
I3240
sg16
I4339
sg17
I4387
sg18
I613
sg19
I33
sg20
I4148
sg21
I1245
sg22
I1126
sg23
I668
sg24
I4242
sg25
I415
sg26
I146
sg27
I3065
sg28
I1374
sg29
I308
sg30
I304
sg31
I722
sg32
I960
sg33
I1458
sg34
I0
sg35
I1231
sg36
I3271
sg37
I0
sg38
I2917
sg39
I8
sg40
I2347
sg41
I2771
sg42
I6
sg43
I792
ss.